target datalayout = "e-m:e-p270:32:32-p271:32:32-p272:64:64-i64:64-i128:128-f80:128-n8:16:32:64-S128"
target triple = "x86_64-pc-linux-gnu"

%struct.anon = type { i64, double, double, ptr }

; Function Attrs: nounwind uwtable
define dso_local i32 @resHeat(double noundef %0, ptr noundef %1, ptr noundef %2, ptr noundef %3, ptr noundef %4) #0 {
  %6 = alloca double, align 8
  %7 = alloca ptr, align 8
  %8 = alloca ptr, align 8
  %9 = alloca ptr, align 8
  %10 = alloca ptr, align 8
  %11 = alloca i64, align 8
  %12 = alloca i64, align 8
  %13 = alloca i64, align 8
  %14 = alloca i64, align 8
  %15 = alloca i64, align 8
  %16 = alloca ptr, align 8
  %17 = alloca ptr, align 8
  %18 = alloca ptr, align 8
  %19 = alloca double, align 8
  %20 = alloca double, align 8
  %21 = alloca double, align 8
  %22 = alloca ptr, align 8
  store double %0, ptr %6, align 8, !tbaa !23
  store ptr %1, ptr %7, align 8, !tbaa !8
  store ptr %2, ptr %8, align 8, !tbaa !8
  store ptr %3, ptr %9, align 8, !tbaa !8
  store ptr %4, ptr %10, align 8, !tbaa !4
  call void @llvm.lifetime.start.p0(i64 8, ptr %11) #6
  call void @llvm.lifetime.start.p0(i64 8, ptr %12) #6
  call void @llvm.lifetime.start.p0(i64 8, ptr %13) #6
  call void @llvm.lifetime.start.p0(i64 8, ptr %14) #6
  call void @llvm.lifetime.start.p0(i64 8, ptr %15) #6
  call void @llvm.lifetime.start.p0(i64 8, ptr %16) #6
  call void @llvm.lifetime.start.p0(i64 8, ptr %17) #6
  call void @llvm.lifetime.start.p0(i64 8, ptr %18) #6
  call void @llvm.lifetime.start.p0(i64 8, ptr %19) #6
  call void @llvm.lifetime.start.p0(i64 8, ptr %20) #6
  call void @llvm.lifetime.start.p0(i64 8, ptr %21) #6
  call void @llvm.lifetime.start.p0(i64 8, ptr %22) #6
  %23 = load ptr, ptr %7, align 8, !tbaa !8
  %24 = call ptr @N_VGetArrayPointer(ptr noundef %23)
  store ptr %24, ptr %16, align 8, !tbaa !31
  %25 = load ptr, ptr %8, align 8, !tbaa !8
  %26 = call ptr @N_VGetArrayPointer(ptr noundef %25)
  store ptr %26, ptr %17, align 8, !tbaa !31
  %27 = load ptr, ptr %9, align 8, !tbaa !8
  %28 = call ptr @N_VGetArrayPointer(ptr noundef %27)
  store ptr %28, ptr %18, align 8, !tbaa !31
  %29 = load ptr, ptr %10, align 8, !tbaa !4
  store ptr %29, ptr %22, align 8, !tbaa !4
  %30 = load ptr, ptr %22, align 8, !tbaa !4
  %31 = getelementptr inbounds nuw %struct.anon, ptr %30, i32 0, i32 2
  %32 = load double, ptr %31, align 8, !tbaa !22
  store double %32, ptr %19, align 8, !tbaa !23
  %33 = load ptr, ptr %22, align 8, !tbaa !4
  %34 = getelementptr inbounds nuw %struct.anon, ptr %33, i32 0, i32 0
  %35 = load i64, ptr %34, align 8, !tbaa !20
  store i64 %35, ptr %15, align 8, !tbaa !24
  %36 = load ptr, ptr %7, align 8, !tbaa !8
  %37 = load ptr, ptr %9, align 8, !tbaa !8
  call void @N_VScale(double noundef 1.000000e+00, ptr noundef %36, ptr noundef %37)
  store i64 1, ptr %12, align 8, !tbaa !24
  br label %38

38:                                               ; preds = %105, %5
  %39 = load i64, ptr %12, align 8, !tbaa !24
  %40 = icmp slt i64 %39, 9
  br i1 %40, label %41, label %108

41:                                               ; preds = %38
  %42 = load i64, ptr %15, align 8, !tbaa !24
  %43 = load i64, ptr %12, align 8, !tbaa !24
  %44 = mul nsw i64 %42, %43
  store i64 %44, ptr %13, align 8, !tbaa !24
  store i64 1, ptr %11, align 8, !tbaa !24
  br label %45

45:                                               ; preds = %101, %41
  %46 = load i64, ptr %11, align 8, !tbaa !24
  %47 = load i64, ptr %15, align 8, !tbaa !24
  %48 = sub nsw i64 %47, 1
  %49 = icmp slt i64 %46, %48
  br i1 %49, label %50, label %104

50:                                               ; preds = %45
  %51 = load i64, ptr %13, align 8, !tbaa !24
  %52 = load i64, ptr %11, align 8, !tbaa !24
  %53 = add nsw i64 %51, %52
  store i64 %53, ptr %14, align 8, !tbaa !24
  %54 = load ptr, ptr %16, align 8, !tbaa !31
  %55 = load i64, ptr %14, align 8, !tbaa !24
  %56 = sub nsw i64 %55, 1
  %57 = getelementptr inbounds double, ptr %54, i64 %56
  %58 = load double, ptr %57, align 8, !tbaa !23
  %59 = load ptr, ptr %16, align 8, !tbaa !31
  %60 = load i64, ptr %14, align 8, !tbaa !24
  %61 = add nsw i64 %60, 1
  %62 = getelementptr inbounds double, ptr %59, i64 %61
  %63 = load double, ptr %62, align 8, !tbaa !23
  %64 = fadd double %58, %63
  %65 = load ptr, ptr %16, align 8, !tbaa !31
  %66 = load i64, ptr %14, align 8, !tbaa !24
  %67 = getelementptr inbounds double, ptr %65, i64 %66
  %68 = load double, ptr %67, align 8, !tbaa !23
  %69 = call double @llvm.fmuladd.f64(double -2.000000e+00, double %68, double %64)
  store double %69, ptr %20, align 8, !tbaa !23
  %70 = load ptr, ptr %16, align 8, !tbaa !31
  %71 = load i64, ptr %14, align 8, !tbaa !24
  %72 = load i64, ptr %15, align 8, !tbaa !24
  %73 = sub nsw i64 %71, %72
  %74 = getelementptr inbounds double, ptr %70, i64 %73
  %75 = load double, ptr %74, align 8, !tbaa !23
  %76 = load ptr, ptr %16, align 8, !tbaa !31
  %77 = load i64, ptr %14, align 8, !tbaa !24
  %78 = load i64, ptr %15, align 8, !tbaa !24
  %79 = add nsw i64 %77, %78
  %80 = getelementptr inbounds double, ptr %76, i64 %79
  %81 = load double, ptr %80, align 8, !tbaa !23
  %82 = fadd double %75, %81
  %83 = load ptr, ptr %16, align 8, !tbaa !31
  %84 = load i64, ptr %14, align 8, !tbaa !24
  %85 = getelementptr inbounds double, ptr %83, i64 %84
  %86 = load double, ptr %85, align 8, !tbaa !23
  %87 = call double @llvm.fmuladd.f64(double -2.000000e+00, double %86, double %82)
  store double %87, ptr %21, align 8, !tbaa !23
  %88 = load ptr, ptr %17, align 8, !tbaa !31
  %89 = load i64, ptr %14, align 8, !tbaa !24
  %90 = getelementptr inbounds double, ptr %88, i64 %89
  %91 = load double, ptr %90, align 8, !tbaa !23
  %92 = load double, ptr %19, align 8, !tbaa !23
  %93 = load double, ptr %20, align 8, !tbaa !23
  %94 = load double, ptr %21, align 8, !tbaa !23
  %95 = fadd double %93, %94
  %96 = fneg double %92
  %97 = call double @llvm.fmuladd.f64(double %96, double %95, double %91)
  %98 = load ptr, ptr %18, align 8, !tbaa !31
  %99 = load i64, ptr %14, align 8, !tbaa !24
  %100 = getelementptr inbounds double, ptr %98, i64 %99
  store double %97, ptr %100, align 8, !tbaa !23
  br label %101

101:                                              ; preds = %50
  %102 = load i64, ptr %11, align 8, !tbaa !24
  %103 = add nsw i64 %102, 1
  store i64 %103, ptr %11, align 8, !tbaa !24
  br label %45

104:                                              ; preds = %45
  br label %105

105:                                              ; preds = %104
  %106 = load i64, ptr %12, align 8, !tbaa !24
  %107 = add nsw i64 %106, 1
  store i64 %107, ptr %12, align 8, !tbaa !24
  br label %38

108:                                              ; preds = %38
  call void @llvm.lifetime.end.p0(i64 8, ptr %22) #6
  call void @llvm.lifetime.end.p0(i64 8, ptr %21) #6
  call void @llvm.lifetime.end.p0(i64 8, ptr %20) #6
  call void @llvm.lifetime.end.p0(i64 8, ptr %19) #6
  call void @llvm.lifetime.end.p0(i64 8, ptr %18) #6
  call void @llvm.lifetime.end.p0(i64 8, ptr %17) #6
  call void @llvm.lifetime.end.p0(i64 8, ptr %16) #6
  call void @llvm.lifetime.end.p0(i64 8, ptr %15) #6
  call void @llvm.lifetime.end.p0(i64 8, ptr %14) #6
  call void @llvm.lifetime.end.p0(i64 8, ptr %13) #6
  call void @llvm.lifetime.end.p0(i64 8, ptr %12) #6
  call void @llvm.lifetime.end.p0(i64 8, ptr %11) #6
  ret i32 0
}